target datalayout = "e-m:e-p270:32:32-p271:32:32-p272:64:64-i64:64-i128:128-f80:128-n8:16:32:64-S128"
target triple = "x86_64-pc-linux-gnu"

@.str.328 = private unnamed_addr constant [11 x i8] c": %u.%u.%u\00", align 1

; Function Attrs: null_pointer_is_valid sspstrong uwtable
define internal i32 @coap_get_opt_uint(ptr noundef %0, i32 noundef %1, i32 noundef %2) #1 {
  %4 = alloca i32, align 4
  %5 = alloca ptr, align 8
  %6 = alloca i32, align 4
  %7 = alloca i32, align 4
  store ptr %0, ptr %5, align 8
  store i32 %1, ptr %6, align 4
  store i32 %2, ptr %7, align 4
  %8 = load i32, ptr %7, align 4
  switch i32 %8, label %28 [
    i32 0, label %9
    i32 1, label %10
    i32 2, label %15
    i32 3, label %20
    i32 4, label %24
  ]

9:                                                ; preds = %3
  store i32 0, ptr %4, align 4
  br label %29

10:                                               ; preds = %3
  %11 = load ptr, ptr %5, align 8
  %12 = load i32, ptr %6, align 4
  %13 = call zeroext i8 @tvb_get_uint8(ptr noundef %11, i32 noundef %12)
  %14 = zext i8 %13 to i32
  store i32 %14, ptr %4, align 4
  br label %29

15:                                               ; preds = %3
  %16 = load ptr, ptr %5, align 8
  %17 = load i32, ptr %6, align 4
  %18 = call zeroext i16 @tvb_get_ntohs(ptr noundef %16, i32 noundef %17)
  %19 = zext i16 %18 to i32
  store i32 %19, ptr %4, align 4
  br label %29

20:                                               ; preds = %3
  %21 = load ptr, ptr %5, align 8
  %22 = load i32, ptr %6, align 4
  %23 = call i32 @tvb_get_ntoh24(ptr noundef %21, i32 noundef %22)
  store i32 %23, ptr %4, align 4
  br label %29

24:                                               ; preds = %3
  %25 = load ptr, ptr %5, align 8
  %26 = load i32, ptr %6, align 4
  %27 = call i32 @tvb_get_ntohl(ptr noundef %25, i32 noundef %26)
  store i32 %27, ptr %4, align 4
  br label %29

28:                                               ; preds = %3
  store i32 -1, ptr %4, align 4
  br label %29

29:                                               ; preds = %28, %24, %20, %15, %10, %9
  %30 = load i32, ptr %4, align 4
  ret i32 %30
}

; Function Attrs: null_pointer_is_valid sspstrong uwtable
define internal void @dissect_coap_opt_ocf_version(ptr noundef %0, ptr noundef %1, ptr noundef %2, i32 noundef %3, i32 noundef %4, i32 noundef %5) #1 {
  %7 = alloca ptr, align 8
  %8 = alloca ptr, align 8
  %9 = alloca ptr, align 8
  %10 = alloca i32, align 4
  %11 = alloca i32, align 4
  %12 = alloca i32, align 4
  %13 = alloca i32, align 4
  %14 = alloca i32, align 4
  %15 = alloca i32, align 4
  %16 = alloca i32, align 4
  store ptr %0, ptr %7, align 8
  store ptr %1, ptr %8, align 8
  store ptr %2, ptr %9, align 8
  store i32 %3, ptr %10, align 4
  store i32 %4, ptr %11, align 4
  store i32 %5, ptr %12, align 4
  call void @llvm.lifetime.start.p0(i64 4, ptr %13) #11
  %17 = load ptr, ptr %7, align 8
  %18 = load i32, ptr %10, align 4
  %19 = load i32, ptr %11, align 4
  %20 = call i32 @coap_get_opt_uint(ptr noundef %17, i32 noundef %18, i32 noundef %19)
  store i32 %20, ptr %13, align 4
  call void @llvm.lifetime.start.p0(i64 4, ptr %14) #11
  %21 = load i32, ptr %13, align 4
  %22 = and i32 %21, 63
  store i32 %22, ptr %14, align 4
  call void @llvm.lifetime.start.p0(i64 4, ptr %15) #11
  %23 = load i32, ptr %13, align 4
  %24 = and i32 %23, 1984
  %25 = lshr i32 %24, 6
  store i32 %25, ptr %15, align 4
  call void @llvm.lifetime.start.p0(i64 4, ptr %16) #11
  %26 = load i32, ptr %13, align 4
  %27 = and i32 %26, 63488
  %28 = lshr i32 %27, 11
  store i32 %28, ptr %16, align 4
  %29 = load ptr, ptr %9, align 8
  %30 = load i32, ptr %12, align 4
  %31 = load ptr, ptr %7, align 8
  %32 = load i32, ptr %10, align 4
  %33 = load i32, ptr %11, align 4
  %34 = load i32, ptr %13, align 4
  %35 = call ptr @proto_tree_add_uint(ptr noundef %29, i32 noundef %30, ptr noundef %31, i32 noundef %32, i32 noundef %33, i32 noundef %34)
  %36 = load ptr, ptr %8, align 8
  %37 = load i32, ptr %16, align 4
  %38 = load i32, ptr %15, align 4
  %39 = load i32, ptr %14, align 4
  call void (ptr, ptr, ...) @proto_item_append_text(ptr noundef %36, ptr noundef @.str.328, i32 noundef %37, i32 noundef %38, i32 noundef %39)
  call void @llvm.lifetime.end.p0(i64 4, ptr %16) #11
  call void @llvm.lifetime.end.p0(i64 4, ptr %15) #11
  call void @llvm.lifetime.end.p0(i64 4, ptr %14) #11
  call void @llvm.lifetime.end.p0(i64 4, ptr %13) #11
  ret void
}